; Function Attrs: mustprogress uwtable
define noundef nonnull align 8 dereferenceable(8) ptr @_ZN19OpenColorIO_v2_4devlsERSoRKNS_19ColorSpaceTransformE(ptr noundef nonnull returned align 8 dereferenceable(8) %os, ptr noundef nonnull align 8 dereferenceable(16) %t) local_unnamed_addr #0 personality ptr @__gxx_personality_v0 {
entry:
  %call = tail call noundef nonnull align 8 dereferenceable(8) ptr @_ZStlsISt11char_traitsIcEERSt13basic_ostreamIcT_ES5_PKc(ptr noundef nonnull align 8 dereferenceable(8) %os, ptr noundef nonnull @.str.4)
  %call1 = tail call noundef nonnull align 8 dereferenceable(8) ptr @_ZStlsISt11char_traitsIcEERSt13basic_ostreamIcT_ES5_PKc(ptr noundef nonnull align 8 dereferenceable(8) %os, ptr noundef nonnull @.str.5)
  %vtable = load ptr, ptr %t, align 8
  %vfn = getelementptr inbounds i8, ptr %vtable, i64 8
  %0 = load ptr, ptr %vfn, align 8
  %call2 = tail call noundef i32 %0(ptr noundef nonnull align 8 dereferenceable(16) %t) #20
  %call3 = tail call noundef ptr @_ZN19OpenColorIO_v2_4dev26TransformDirectionToStringENS_18TransformDirectionE(i32 noundef %call2)
  %call4 = tail call noundef nonnull align 8 dereferenceable(8) ptr @_ZStlsISt11char_traitsIcEERSt13basic_ostreamIcT_ES5_PKc(ptr noundef nonnull align 8 dereferenceable(8) %call1, ptr noundef %call3)
  %call5 = tail call noundef nonnull align 8 dereferenceable(8) ptr @_ZStlsISt11char_traitsIcEERSt13basic_ostreamIcT_ES5_PKc(ptr noundef nonnull align 8 dereferenceable(8) %call4, ptr noundef nonnull @.str.6)
  %call6 = tail call noundef nonnull align 8 dereferenceable(8) ptr @_ZStlsISt11char_traitsIcEERSt13basic_ostreamIcT_ES5_PKc(ptr noundef nonnull align 8 dereferenceable(8) %os, ptr noundef nonnull @.str.7)
  %m_impl.i.i = getelementptr inbounds i8, ptr %t, i64 8
  %1 = load ptr, ptr %m_impl.i.i, align 8
  %m_src.i = getelementptr inbounds i8, ptr %1, i64 8
  %call2.i = tail call noundef ptr @_ZNKSt7__cxx1112basic_stringIcSt11char_traitsIcESaIcEE5c_strEv(ptr noundef nonnull align 8 dereferenceable(32) %m_src.i) #20
  %call8 = tail call noundef nonnull align 8 dereferenceable(8) ptr @_ZStlsISt11char_traitsIcEERSt13basic_ostreamIcT_ES5_PKc(ptr noundef nonnull align 8 dereferenceable(8) %call6, ptr noundef %call2.i)
  %call9 = tail call noundef nonnull align 8 dereferenceable(8) ptr @_ZStlsISt11char_traitsIcEERSt13basic_ostreamIcT_ES5_PKc(ptr noundef nonnull align 8 dereferenceable(8) %call8, ptr noundef nonnull @.str.6)
  %call10 = tail call noundef nonnull align 8 dereferenceable(8) ptr @_ZStlsISt11char_traitsIcEERSt13basic_ostreamIcT_ES5_PKc(ptr noundef nonnull align 8 dereferenceable(8) %os, ptr noundef nonnull @.str.8)
  %2 = load ptr, ptr %m_impl.i.i, align 8
  %m_dst.i = getelementptr inbounds i8, ptr %2, i64 40
  %call2.i12 = tail call noundef ptr @_ZNKSt7__cxx1112basic_stringIcSt11char_traitsIcESaIcEE5c_strEv(ptr noundef nonnull align 8 dereferenceable(32) %m_dst.i) #20
  %call12 = tail call noundef nonnull align 8 dereferenceable(8) ptr @_ZStlsISt11char_traitsIcEERSt13basic_ostreamIcT_ES5_PKc(ptr noundef nonnull align 8 dereferenceable(8) %call10, ptr noundef %call2.i12)
  %3 = load ptr, ptr %m_impl.i.i, align 8
  %m_dataBypass.i = getelementptr inbounds i8, ptr %3, i64 72
  %4 = load i8, ptr %m_dataBypass.i, align 8
  %5 = and i8 %4, 1
  %tobool.i.not = icmp eq i8 %5, 0
  br i1 %tobool.i.not, label %if.then, label %if.end

if.then:                                          ; preds = %entry
  %call14 = tail call noundef nonnull align 8 dereferenceable(8) ptr @_ZStlsISt11char_traitsIcEERSt13basic_ostreamIcT_ES5_PKc(ptr noundef nonnull align 8 dereferenceable(8) %os, ptr noundef nonnull @.str.9)
  %call16 = tail call noundef nonnull align 8 dereferenceable(8) ptr @_ZNSolsEb(ptr noundef nonnull align 8 dereferenceable(8) %call14, i1 noundef zeroext false)
  br label %if.end

if.end:                                           ; preds = %if.then, %entry
  %call17 = tail call noundef nonnull align 8 dereferenceable(8) ptr @_ZStlsISt11char_traitsIcEERSt13basic_ostreamIcT_ES5_PKc(ptr noundef nonnull align 8 dereferenceable(8) %os, ptr noundef nonnull @.str.10)
  ret ptr %os
}